Certificate:
    Data:
        Version: 3 (0x2)
        Serial Number: 1 (0x1)
        Signature Algorithm: sha256WithRSAEncryption
        Issuer: C=ES, ST=Catalonia, L=Barcelona, O=NSAA/emailAddress=admin@example.org, CN=Radius Server Certificate Authority
        Validity
            Not Before: May 20 19:59:17 2024 GMT
            Not After : Jul 19 19:59:17 2024 GMT
        Subject: C=ES, ST=Catalonia, O=NSAA, OU=NSAA, CN=NSAA
        Subject Public Key Info:
            Public Key Algorithm: rsaEncryption
                Public-Key: (2048 bit)
                Modulus:
                    00:de:dc:b5:ac:c2:d9:0f:a2:b1:98:c5:68:f3:b2:
                    55:79:77:ae:ac:c6:0b:20:b9:60:3a:9c:c2:45:63:
                    15:21:0b:a7:6f:b1:f5:eb:67:a1:a1:9f:01:73:3f:
                    3e:9a:1e:13:4b:9f:7c:39:9b:e8:0f:c6:58:b4:b0:
                    89:c7:cb:7b:04:42:d8:bd:9d:41:25:0c:55:8c:aa:
                    98:d0:37:9c:92:db:33:d9:42:fd:65:a0:5b:47:23:
                    de:0a:b3:7b:f3:47:3b:19:e1:57:fc:f8:76:be:b8:
                    f8:97:62:6f:01:7b:d4:4f:b1:e7:b9:28:bd:b3:8a:
                    a1:16:13:eb:a6:dd:eb:ef:e3:04:24:5b:d5:74:eb:
                    f1:ae:41:a7:9d:40:07:3c:65:d4:36:a3:d7:2a:9b:
                    a5:fc:33:c7:1a:c9:57:95:90:47:fd:4a:63:15:85:
                    2a:c2:19:07:ae:f1:e2:8a:6b:f2:30:ee:7f:f5:e3:
                    11:58:cf:7c:3e:be:09:b2:85:bb:42:05:af:95:a0:
                    7a:a6:ee:e3:b3:30:c9:5d:5f:62:8e:f3:f5:8a:1a:
                    89:df:73:3d:c0:69:72:35:08:16:59:9f:1c:f2:3f:
                    de:a5:e3:8b:8a:93:f2:38:c5:ba:b1:02:39:cd:9e:
                    7f:80:f0:8a:9d:b8:b9:9b:ec:86:0a:3b:3d:ba:9e:
                    77:d1
                Exponent: 65537 (0x10001)
        X509v3 extensions:
            X509v3 Extended Key Usage: 
                TLS Web Server Authentication
            X509v3 Subject Key Identifier: 
                49:E5:EA:FD:ED:9F:BB:6A:79:88:FD:86:19:E1:EB:0A:05:A9:FA:B1
            X509v3 Authority Key Identifier: 
                1B:62:D5:EE:B2:63:B2:5E:9A:2A:74:F4:C0:5E:D4:98:15:71:E4:E5
    Signature Algorithm: sha256WithRSAEncryption
    Signature Value:
        62:63:b8:15:51:eb:af:9c:34:dc:2b:63:fe:d9:6b:cd:f6:b5:
        b4:2c:0c:67:18:10:dd:e8:71:8d:8c:c9:d0:e3:49:a7:fa:bf:
        cb:9e:9c:55:38:63:ad:5b:f1:9c:ca:69:c0:2f:23:1c:75:37:
        11:29:4a:5a:bf:63:de:23:9d:7e:4c:17:47:73:39:5b:0f:0a:
        ce:63:fc:ea:1f:d9:3a:67:5d:aa:1e:43:a5:f2:17:d1:cd:45:
        ad:7b:b9:ae:7e:8f:71:08:32:7c:0c:30:08:96:5b:b7:b7:59:
        c0:15:8b:54:5f:d9:3e:67:e0:b6:ef:55:60:04:07:32:97:c1:
        d4:87:ad:a8:9a:e7:89:e0:2e:2f:d9:f5:1d:96:be:fa:9e:49:
        0f:15:5d:23:78:94:00:87:cf:9e:db:61:4d:6e:01:3e:d5:ba:
        e5:38:82:36:cd:7f:e1:21:96:21:40:5b:28:46:24:56:4f:b1:
        61:d4:05:4a:81:cc:10:de:3e:6f:d3:2c:5d:ca:72:cb:30:e3:
        bd:e0:86:c9:5a:c5:de:c5:4e:00:69:1b:81:d3:65:1b:37:99:
        95:e8:d0:38:f6:90:5a:0c:8e:8d:20:95:bc:24:7f:57:63:49:
        46:f3:ea:b7:db:7d:0b:bc:8b:66:f1:ae:7e:68:08:6b:39:72:
        64:42:4f:58:17:ab:5c:56:3d:55:cf:c8:b1:e4:4e:5a:3c:43:
        e9:7e:b9:ac:a4:7c:19:ed:0c:c1:e5:e6:0e:80:4b:65:e8:0f:
        c4:2f:2b:fd:26:e2:03:8e:46:d1:85:81:fd:42:c4:33:16:3e:
        f6:4f:de:e5:87:5f:ba:b4:86:4a:31:8a:a2:5b:37:82:ca:04:
        b2:84:74:47:2d:ae:65:2c:f9:c0:05:46:1d:3e:2b:94:60:1a:
        89:8d:b1:ad:3d:41:cf:5c:71:61:df:b2:bc:db:7d:a0:e0:1f:
        21:6d:5c:9b:62:e1:a3:e1:ad:63:70:cf:87:6c:34:16:c0:48:
        c9:57:36:76:37:ad:d6:85:3a:98:fb:fe:59:18:9f:b3:d1:d9:
        c9:db:f2:30:50:ac:31:dd:41:67:54:2e:e4:9a:1f:32:c1:bc:
        c7:34:10:07:16:f9:7f:ae:8f:b8:98:b6:0d:e2:c9:ed:f3:a1:
        93:61:25:df:6a:b3:7a:a1:4e:8b:ba:e1:15:7e:05:4e:4a:3e:
        ba:97:3c:ba:1a:3c:7e:6a:b3:ac:2b:fe:66:32:bb:38:b9:bb:
        ac:c3:09:7a:79:a5:b3:dc:07:45:9d:b5:c5:6b:0f:f0:cb:cb:
        94:9d:55:33:21:79:0b:30:2c:59:00:af:93:4f:44:52:90:e9:
        13:de:9a:16:79:25:64:5d
-----BEGIN CERTIFICATE-----
MIIEtTCCAp2gAwIBAgIBATANBgkqhkiG9w0BAQsFADCBlDELMAkGA1UEBhMCRVMx
EjAQBgNVBAgMCUNhdGFsb25pYTESMBAGA1UEBwwJQmFyY2Vsb25hMQ0wCwYDVQQK
DAROU0FBMSAwHgYJKoZIhvcNAQkBFhFhZG1pbkBleGFtcGxlLm9yZzEsMCoGA1UE
AwwjUmFkaXVzIFNlcnZlciBDZXJ0aWZpY2F0ZSBBdXRob3JpdHkwHhcNMjQwNTIw
MTk1OTE3WhcNMjQwNzE5MTk1OTE3WjBOMQswCQYDVQQGEwJFUzESMBAGA1UECAwJ
Q2F0YWxvbmlhMQ0wCwYDVQQKDAROU0FBMQ0wCwYDVQQLDAROU0FBMQ0wCwYDVQQD
DAROU0FBMIIBIjANBgkqhkiG9w0BAQEFAAOCAQ8AMIIBCgKCAQEA3ty1rMLZD6Kx
mMVo87JVeXeurMYLILlgOpzCRWMVIQunb7H162ehoZ8Bcz8+mh4TS598OZvoD8ZY
tLCJx8t7BELYvZ1BJQxVjKqY0Decktsz2UL9ZaBbRyPeCrN780c7GeFX/Ph2vrj4
l2JvAXvUT7HnuSi9s4qhFhPrpt3r7+MEJFvVdOvxrkGnnUAHPGXUNqPXKpul/DPH
GslXlZBH/UpjFYUqwhkHrvHiimvyMO5/9eMRWM98Pr4JsoW7QgWvlaB6pu7jszDJ
XV9ijvP1ihqJ33M9wGlyNQgWWZ8c8j/epeOLipPyOMW6sQI5zZ5/gPCKnbi5m+yG
Cjs9up530QIDAQABo1cwVTATBgNVHSUEDDAKBggrBgEFBQcDATAdBgNVHQ4EFgQU
SeXq/e2fu2p5iP2GGeHrCgWp+rEwHwYDVR0jBBgwFoAUG2LV7rJjsl6aKnT0wF7U
mBVx5OUwDQYJKoZIhvcNAQELBQADggIBAGJjuBVR66+cNNwrY/7Za832tbQsDGcY
EN3ocY2MydDjSaf6v8uenFU4Y61b8ZzKacAvIxx1NxEpSlq/Y94jnX5MF0dzOVsP
Cs5j/Oof2TpnXaoeQ6XyF9HNRa17ua5+j3EIMnwMMAiWW7e3WcAVi1Rf2T5n4Lbv
VWAEBzKXwdSHraia54ngLi/Z9R2WvvqeSQ8VXSN4lACHz57bYU1uAT7VuuU4gjbN
f+EhliFAWyhGJFZPsWHUBUqBzBDePm/TLF3Kcssw473ghslaxd7FTgBpG4HTZRs3
mZXo0Dj2kFoMjo0glbwkf1djSUbz6rfbfQu8i2bxrn5oCGs5cmRCT1gXq1xWPVXP
yLHkTlo8Q+l+uaykfBntDMHl5g6AS2XoD8QvK/0m4gOORtGFgf1CxDMWPvZP3uWH
X7q0hkoxiqJbN4LKBLKEdEctrmUs+cAFRh0+K5RgGomNsa09Qc9ccWHfsrzbfaDg
HyFtXJti4aPhrWNwz4dsNBbASMlXNnY3rdaFOpj7/lkYn7PR2cnb8jBQrDHdQWdU
LuSaHzLBvMc0EAcW+X+uj7iYtg3iye3zoZNhJd9qs3qhTou64RV+BU5KPrqXPLoa
PH5qs6wr/mYyuzi5u6zDCXp5pbPcB0WdtcVrD/DLy5SdVTMheQswLFkAr5NPRFKQ
6RPemhZ5JWRd
-----END CERTIFICATE-----
